; Function Attrs: mustprogress uwtable
define void @_ZNK5faiss9IndexFlat12range_searchElPKffPNS_17RangeSearchResultEPKNS_16SearchParametersE(ptr noundef nonnull readonly align 8 captures(none) dereferenceable(72) %0, i64 noundef %1, ptr noundef %2, float noundef %3, ptr noundef %4, ptr noundef readonly captures(address_is_null) %5) unnamed_addr #2 align 2 personality ptr @__gxx_personality_v0 {
  %7 = alloca %"class.std::__cxx11::basic_string", align 8
  %8 = alloca %"class.std::allocator.0", align 1
  %.not = icmp eq ptr %5, null
  br i1 %.not, label %12, label %9

9:                                                ; preds = %6
  %10 = getelementptr inbounds nuw i8, ptr %5, i64 8
  %11 = load ptr, ptr %10, align 8, !tbaa !13
  br label %12

12:                                               ; preds = %6, %9
  %13 = phi ptr [ %11, %9 ], [ null, %6 ]
  %14 = getelementptr inbounds nuw i8, ptr %0, i64 28
  %15 = load i32, ptr %14, align 4, !tbaa !23
  switch i32 %15, label %32 [
    i32 0, label %16
    i32 1, label %24
  ]

16:                                               ; preds = %12
  %17 = getelementptr inbounds nuw i8, ptr %0, i64 48
  %18 = load ptr, ptr %17, align 8, !tbaa !7
  %19 = getelementptr inbounds nuw i8, ptr %0, i64 8
  %20 = load i32, ptr %19, align 8, !tbaa !36
  %21 = sext i32 %20 to i64
  %22 = getelementptr inbounds nuw i8, ptr %0, i64 16
  %23 = load i64, ptr %22, align 8, !tbaa !37
  tail call void @_ZN5faiss26range_search_inner_productEPKfS1_mmmfPNS_17RangeSearchResultEPKNS_10IDSelectorE(ptr noundef %2, ptr noundef %18, i64 noundef %21, i64 noundef %1, i64 noundef %23, float noundef %3, ptr noundef %4, ptr noundef %13)
  br label %49

24:                                               ; preds = %12
  %25 = getelementptr inbounds nuw i8, ptr %0, i64 48
  %26 = load ptr, ptr %25, align 8, !tbaa !7
  %27 = getelementptr inbounds nuw i8, ptr %0, i64 8
  %28 = load i32, ptr %27, align 8, !tbaa !36
  %29 = sext i32 %28 to i64
  %30 = getelementptr inbounds nuw i8, ptr %0, i64 16
  %31 = load i64, ptr %30, align 8, !tbaa !37
  tail call void @_ZN5faiss18range_search_L2sqrEPKfS1_mmmfPNS_17RangeSearchResultEPKNS_10IDSelectorE(ptr noundef %2, ptr noundef %26, i64 noundef %29, i64 noundef %1, i64 noundef %31, float noundef %3, ptr noundef %4, ptr noundef %13)
  br label %49

32:                                               ; preds = %12
  %33 = tail call ptr @__cxa_allocate_exception(i64 40) #21
  call void @llvm.lifetime.start.p0(i64 32, ptr nonnull %7) #21
  call void @llvm.lifetime.start.p0(i64 1, ptr nonnull %8) #21
  invoke void @_ZNSt7__cxx1112basic_stringIcSt11char_traitsIcESaIcEEC2IS3_EEPKcRKS3_(ptr noundef nonnull align 8 dereferenceable(32) %7, ptr noundef nonnull @.str.4, ptr noundef nonnull align 1 dereferenceable(1) %8)
          to label %34 unwind label %_ZNSt7__cxx1112basic_stringIcSt11char_traitsIcESaIcEED2Ev.exit.thread

34:                                               ; preds = %32
  invoke void @_ZN5faiss14FaissExceptionC1ERKNSt7__cxx1112basic_stringIcSt11char_traitsIcESaIcEEEPKcSA_i(ptr noundef nonnull align 8 dereferenceable(40) %33, ptr noundef nonnull align 8 dereferenceable(32) %7, ptr noundef nonnull @__PRETTY_FUNCTION__._ZNK5faiss9IndexFlat12range_searchElPKffPNS_17RangeSearchResultEPKNS_16SearchParametersE, ptr noundef nonnull @.str.2, i32 noundef 76)
          to label %35 unwind label %37

35:                                               ; preds = %34
  invoke void @__cxa_throw(ptr nonnull %33, ptr nonnull @_ZTIN5faiss14FaissExceptionE, ptr nonnull @_ZN5faiss14FaissExceptionD2Ev) #26
          to label %50 unwind label %37

_ZNSt7__cxx1112basic_stringIcSt11char_traitsIcESaIcEED2Ev.exit.thread: ; preds = %32
  %36 = landingpad { ptr, i32 }
          cleanup
  call void @llvm.lifetime.end.p0(i64 1, ptr nonnull %8) #21
  call void @llvm.lifetime.end.p0(i64 32, ptr nonnull %7) #21
  br label %47

37:                                               ; preds = %35, %34
  %.0 = phi i1 [ false, %35 ], [ true, %34 ]
  %38 = landingpad { ptr, i32 }
          cleanup
  %39 = load ptr, ptr %7, align 8, !tbaa !22
  %40 = getelementptr inbounds nuw i8, ptr %7, i64 16
  %41 = icmp eq ptr %39, %40
  br i1 %41, label %_ZNKSt7__cxx1112basic_stringIcSt11char_traitsIcESaIcEE11_M_is_localEv.exit.thread.i.i, label %_ZNSt7__cxx1112basic_stringIcSt11char_traitsIcESaIcEED2Ev.exit

_ZNKSt7__cxx1112basic_stringIcSt11char_traitsIcESaIcEE11_M_is_localEv.exit.thread.i.i: ; preds = %37
  %42 = getelementptr inbounds nuw i8, ptr %7, i64 8
  %43 = load i64, ptr %42, align 8, !tbaa !18
  %44 = icmp ult i64 %43, 16
  call void @llvm.assume(i1 %44)
  call void @llvm.lifetime.end.p0(i64 1, ptr nonnull %8) #21
  call void @llvm.lifetime.end.p0(i64 32, ptr nonnull %7) #21
  br i1 %.0, label %47, label %48

_ZNSt7__cxx1112basic_stringIcSt11char_traitsIcESaIcEED2Ev.exit: ; preds = %37
  %45 = load i64, ptr %40, align 8, !tbaa !21
  %46 = add i64 %45, 1
  call void @_ZdlPvm(ptr noundef %39, i64 noundef %46) #25
  call void @llvm.lifetime.end.p0(i64 1, ptr nonnull %8) #21
  call void @llvm.lifetime.end.p0(i64 32, ptr nonnull %7) #21
  br i1 %.0, label %47, label %48

47:                                               ; preds = %_ZNKSt7__cxx1112basic_stringIcSt11char_traitsIcESaIcEE11_M_is_localEv.exit.thread.i.i, %_ZNSt7__cxx1112basic_stringIcSt11char_traitsIcESaIcEED2Ev.exit.thread, %_ZNSt7__cxx1112basic_stringIcSt11char_traitsIcESaIcEED2Ev.exit
  %.pn22 = phi { ptr, i32 } [ %36, %_ZNSt7__cxx1112basic_stringIcSt11char_traitsIcESaIcEED2Ev.exit.thread ], [ %38, %_ZNSt7__cxx1112basic_stringIcSt11char_traitsIcESaIcEED2Ev.exit ], [ %38, %_ZNKSt7__cxx1112basic_stringIcSt11char_traitsIcESaIcEE11_M_is_localEv.exit.thread.i.i ]
  call void @__cxa_free_exception(ptr %33) #21
  br label %48

48:                                               ; preds = %_ZNKSt7__cxx1112basic_stringIcSt11char_traitsIcESaIcEE11_M_is_localEv.exit.thread.i.i, %47, %_ZNSt7__cxx1112basic_stringIcSt11char_traitsIcESaIcEED2Ev.exit
  %.pn21 = phi { ptr, i32 } [ %.pn22, %47 ], [ %38, %_ZNSt7__cxx1112basic_stringIcSt11char_traitsIcESaIcEED2Ev.exit ], [ %38, %_ZNKSt7__cxx1112basic_stringIcSt11char_traitsIcESaIcEE11_M_is_localEv.exit.thread.i.i ]
  resume { ptr, i32 } %.pn21

49:                                               ; preds = %24, %16
  ret void

50:                                               ; preds = %35
  unreachable
}